target datalayout = "e-m:e-p270:32:32-p271:32:32-p272:64:64-i64:64-i128:128-f80:128-n8:16:32:64-S128"
target triple = "x86_64-pc-linux-gnu"

%"class.cv::Point_" = type { i32, i32 }
%"class.cv::Matx.115" = type { [4 x float] }

; Function Attrs: inlinehint mustprogress nounwind uwtable
define internal noundef i32 @_ZN2cvL13saturate_castIiEET_i(i32 noundef %0) #5 {
  %2 = alloca i32, align 4
  store i32 %0, ptr %2, align 4, !tbaa !8
  %3 = load i32, ptr %2, align 4, !tbaa !8
  ret i32 %3
}

; Function Attrs: alwaysinline mustprogress nounwind uwtable
define internal noundef i32 @_ZL14_mm_cvtss_si32Dv4_f(<4 x float> noundef %0) #27 {
  %2 = alloca <4 x float>, align 16
  store <4 x float> %0, ptr %2, align 16, !tbaa !110
  %3 = load <4 x float>, ptr %2, align 16, !tbaa !110
  %4 = call i32 @llvm.x86.sse.cvtss2si(<4 x float> %3)
  ret i32 %4
}

; Function Attrs: alwaysinline mustprogress nounwind uwtable
define internal noundef <4 x float> @_ZL10_mm_set_ssf(float noundef %0) #27 {
  %2 = alloca float, align 4
  %3 = alloca <4 x float>, align 16
  store float %0, ptr %2, align 4, !tbaa !236
  %4 = load float, ptr %2, align 4, !tbaa !236
  %5 = insertelement <4 x float> poison, float %4, i32 0
  %6 = insertelement <4 x float> %5, float 0.000000e+00, i32 1
  %7 = insertelement <4 x float> %6, float 0.000000e+00, i32 2
  %8 = insertelement <4 x float> %7, float 0.000000e+00, i32 3
  store <4 x float> %8, ptr %3, align 16, !tbaa !110
  %9 = load <4 x float>, ptr %3, align 16, !tbaa !110
  ret <4 x float> %9
}

; Function Attrs: inlinehint mustprogress nounwind uwtable
define internal noundef double @_ZN2cvL4normIiEEdRKNS_6Point_IT_EE(ptr noundef nonnull align 4 dereferenceable(8) %0) #5 {
  %2 = alloca ptr, align 8
  store ptr %0, ptr %2, align 8, !tbaa !208
  %3 = load ptr, ptr %2, align 8, !tbaa !208
  %4 = getelementptr inbounds nuw %"class.cv::Point_", ptr %3, i32 0, i32 0
  %5 = load i32, ptr %4, align 4, !tbaa !128
  %6 = sitofp i32 %5 to double
  %7 = load ptr, ptr %2, align 8, !tbaa !208
  %8 = getelementptr inbounds nuw %"class.cv::Point_", ptr %7, i32 0, i32 0
  %9 = load i32, ptr %8, align 4, !tbaa !128
  %10 = sitofp i32 %9 to double
  %11 = load ptr, ptr %2, align 8, !tbaa !208
  %12 = getelementptr inbounds nuw %"class.cv::Point_", ptr %11, i32 0, i32 1
  %13 = load i32, ptr %12, align 4, !tbaa !126
  %14 = sitofp i32 %13 to double
  %15 = load ptr, ptr %2, align 8, !tbaa !208
  %16 = getelementptr inbounds nuw %"class.cv::Point_", ptr %15, i32 0, i32 1
  %17 = load i32, ptr %16, align 4, !tbaa !126
  %18 = sitofp i32 %17 to double
  %19 = fmul double %14, %18
  %20 = call double @llvm.fmuladd.f64(double %6, double %10, double %19)
  %21 = call double @sqrt(double noundef %20) #3, !tbaa !8
  ret double %21
}

; Function Attrs: inlinehint mustprogress uwtable
define internal i64 @_ZN2cvmiIiEENS_6Point_IT_EERKS3_S5_(ptr noundef nonnull align 4 dereferenceable(8) %0, ptr noundef nonnull align 4 dereferenceable(8) %1) #8 {
  %3 = alloca %"class.cv::Point_", align 4
  %4 = alloca ptr, align 8
  %5 = alloca ptr, align 8
  store ptr %0, ptr %4, align 8, !tbaa !208
  store ptr %1, ptr %5, align 8, !tbaa !208
  %6 = load ptr, ptr %4, align 8, !tbaa !208
  %7 = getelementptr inbounds nuw %"class.cv::Point_", ptr %6, i32 0, i32 0
  %8 = load i32, ptr %7, align 4, !tbaa !128
  %9 = load ptr, ptr %5, align 8, !tbaa !208
  %10 = getelementptr inbounds nuw %"class.cv::Point_", ptr %9, i32 0, i32 0
  %11 = load i32, ptr %10, align 4, !tbaa !128
  %12 = sub nsw i32 %8, %11
  %13 = call noundef i32 @_ZN2cvL13saturate_castIiEET_i(i32 noundef %12)
  %14 = load ptr, ptr %4, align 8, !tbaa !208
  %15 = getelementptr inbounds nuw %"class.cv::Point_", ptr %14, i32 0, i32 1
  %16 = load i32, ptr %15, align 4, !tbaa !126
  %17 = load ptr, ptr %5, align 8, !tbaa !208
  %18 = getelementptr inbounds nuw %"class.cv::Point_", ptr %17, i32 0, i32 1
  %19 = load i32, ptr %18, align 4, !tbaa !126
  %20 = sub nsw i32 %16, %19
  %21 = call noundef i32 @_ZN2cvL13saturate_castIiEET_i(i32 noundef %20)
  call void @_ZN2cv6Point_IiEC2Eii(ptr noundef nonnull align 4 dereferenceable(8) %3, i32 noundef %13, i32 noundef %21)
  %22 = load i64, ptr %3, align 4
  ret i64 %22
}

; Function Attrs: inlinehint mustprogress nounwind uwtable
define linkonce_odr hidden void @_ZN2cv6Point_IiEC2Eii(ptr noundef nonnull align 4 dereferenceable(8) %0, i32 noundef %1, i32 noundef %2) unnamed_addr #5 comdat align 2 {
  %4 = alloca ptr, align 8
  %5 = alloca i32, align 4
  %6 = alloca i32, align 4
  store ptr %0, ptr %4, align 8, !tbaa !208
  store i32 %1, ptr %5, align 4, !tbaa !8
  store i32 %2, ptr %6, align 4, !tbaa !8
  %7 = load ptr, ptr %4, align 8
  %8 = getelementptr inbounds nuw %"class.cv::Point_", ptr %7, i32 0, i32 0
  %9 = load i32, ptr %5, align 4, !tbaa !8
  store i32 %9, ptr %8, align 4, !tbaa !128
  %10 = getelementptr inbounds nuw %"class.cv::Point_", ptr %7, i32 0, i32 1
  %11 = load i32, ptr %6, align 4, !tbaa !8
  store i32 %11, ptr %10, align 4, !tbaa !126
  ret void
}

; Function Attrs: inlinehint mustprogress uwtable
define internal noundef i32 @_ZL7cvRoundf(float noundef %0) #16 {
  %2 = alloca float, align 4
  %3 = alloca <4 x float>, align 16
  store float %0, ptr %2, align 4, !tbaa !236
  call void @llvm.lifetime.start.p0(i64 16, ptr %3) #3
  %4 = load float, ptr %2, align 4, !tbaa !236
  %5 = call noundef <4 x float> @_ZL10_mm_set_ssf(float noundef %4)
  store <4 x float> %5, ptr %3, align 16, !tbaa !110
  %6 = load <4 x float>, ptr %3, align 16, !tbaa !110
  %7 = call noundef i32 @_ZL14_mm_cvtss_si32Dv4_f(<4 x float> noundef %6)
  call void @llvm.lifetime.end.p0(i64 16, ptr %3) #3
  ret i32 %7
}

; Function Attrs: inlinehint mustprogress nounwind uwtable
define linkonce_odr hidden noundef nonnull align 4 dereferenceable(4) ptr @_ZN2cv3VecIfLi4EEixEi(ptr noundef nonnull align 4 dereferenceable(16) %0, i32 noundef %1) #5 comdat align 2 {
  %3 = alloca ptr, align 8
  %4 = alloca i32, align 4
  store ptr %0, ptr %3, align 8, !tbaa !407
  store i32 %1, ptr %4, align 4, !tbaa !8
  %5 = load ptr, ptr %3, align 8
  %6 = getelementptr inbounds nuw %"class.cv::Matx.115", ptr %5, i32 0, i32 0
  %7 = load i32, ptr %4, align 4, !tbaa !8
  %8 = sext i32 %7 to i64
  %9 = getelementptr inbounds [4 x float], ptr %6, i64 0, i64 %8
  ret ptr %9
}

; Function Attrs: mustprogress uwtable
define internal noundef zeroext i1 @_ZN2cv4textL9edge_compENS_3VecIfLi4EEES2_(ptr noundef %0, ptr noundef %1) #4 {
  %3 = alloca ptr, align 8
  %4 = alloca ptr, align 8
  %5 = alloca %"class.cv::Point_", align 4
  %6 = alloca %"class.cv::Point_", align 4
  %7 = alloca double, align 8
  %8 = alloca %"class.cv::Point_", align 4
  %9 = alloca %"class.cv::Point_", align 4
  %10 = alloca %"class.cv::Point_", align 4
  %11 = alloca double, align 8
  %12 = alloca %"class.cv::Point_", align 4
  store ptr %0, ptr %3, align 8, !tbaa !407
  store ptr %1, ptr %4, align 8, !tbaa !407
  call void @llvm.lifetime.start.p0(i64 8, ptr %5) #3
  %13 = call noundef nonnull align 4 dereferenceable(4) ptr @_ZN2cv3VecIfLi4EEixEi(ptr noundef nonnull align 4 dereferenceable(16) %0, i32 noundef 0)
  %14 = load float, ptr %13, align 4, !tbaa !236
  %15 = call noundef i32 @_ZL7cvRoundf(float noundef %14)
  %16 = call noundef nonnull align 4 dereferenceable(4) ptr @_ZN2cv3VecIfLi4EEixEi(ptr noundef nonnull align 4 dereferenceable(16) %0, i32 noundef 1)
  %17 = load float, ptr %16, align 4, !tbaa !236
  %18 = call noundef i32 @_ZL7cvRoundf(float noundef %17)
  call void @_ZN2cv6Point_IiEC2Eii(ptr noundef nonnull align 4 dereferenceable(8) %5, i32 noundef %15, i32 noundef %18)
  call void @llvm.lifetime.start.p0(i64 8, ptr %6) #3
  %19 = call noundef nonnull align 4 dereferenceable(4) ptr @_ZN2cv3VecIfLi4EEixEi(ptr noundef nonnull align 4 dereferenceable(16) %0, i32 noundef 2)
  %20 = load float, ptr %19, align 4, !tbaa !236
  %21 = call noundef i32 @_ZL7cvRoundf(float noundef %20)
  %22 = call noundef nonnull align 4 dereferenceable(4) ptr @_ZN2cv3VecIfLi4EEixEi(ptr noundef nonnull align 4 dereferenceable(16) %0, i32 noundef 3)
  %23 = load float, ptr %22, align 4, !tbaa !236
  %24 = call noundef i32 @_ZL7cvRoundf(float noundef %23)
  call void @_ZN2cv6Point_IiEC2Eii(ptr noundef nonnull align 4 dereferenceable(8) %6, i32 noundef %21, i32 noundef %24)
  call void @llvm.lifetime.start.p0(i64 8, ptr %7) #3
  call void @llvm.lifetime.start.p0(i64 8, ptr %8) #3
  %25 = call i64 @_ZN2cvmiIiEENS_6Point_IT_EERKS3_S5_(ptr noundef nonnull align 4 dereferenceable(8) %5, ptr noundef nonnull align 4 dereferenceable(8) %6)
  store i64 %25, ptr %8, align 4
  %26 = call noundef double @_ZN2cvL4normIiEEdRKNS_6Point_IT_EE(ptr noundef nonnull align 4 dereferenceable(8) %8)
  call void @llvm.lifetime.end.p0(i64 8, ptr %8) #3
  store double %26, ptr %7, align 8, !tbaa !36
  call void @llvm.lifetime.start.p0(i64 8, ptr %9) #3
  %27 = call noundef nonnull align 4 dereferenceable(4) ptr @_ZN2cv3VecIfLi4EEixEi(ptr noundef nonnull align 4 dereferenceable(16) %1, i32 noundef 0)
  %28 = load float, ptr %27, align 4, !tbaa !236
  %29 = call noundef i32 @_ZL7cvRoundf(float noundef %28)
  %30 = call noundef nonnull align 4 dereferenceable(4) ptr @_ZN2cv3VecIfLi4EEixEi(ptr noundef nonnull align 4 dereferenceable(16) %1, i32 noundef 1)
  %31 = load float, ptr %30, align 4, !tbaa !236
  %32 = call noundef i32 @_ZL7cvRoundf(float noundef %31)
  call void @_ZN2cv6Point_IiEC2Eii(ptr noundef nonnull align 4 dereferenceable(8) %9, i32 noundef %29, i32 noundef %32)
  call void @llvm.memcpy.p0.p0.i64(ptr align 4 %5, ptr align 4 %9, i64 8, i1 false), !tbaa.struct !314
  call void @llvm.lifetime.end.p0(i64 8, ptr %9) #3
  call void @llvm.lifetime.start.p0(i64 8, ptr %10) #3
  %33 = call noundef nonnull align 4 dereferenceable(4) ptr @_ZN2cv3VecIfLi4EEixEi(ptr noundef nonnull align 4 dereferenceable(16) %1, i32 noundef 2)
  %34 = load float, ptr %33, align 4, !tbaa !236
  %35 = call noundef i32 @_ZL7cvRoundf(float noundef %34)
  %36 = call noundef nonnull align 4 dereferenceable(4) ptr @_ZN2cv3VecIfLi4EEixEi(ptr noundef nonnull align 4 dereferenceable(16) %1, i32 noundef 3)
  %37 = load float, ptr %36, align 4, !tbaa !236
  %38 = call noundef i32 @_ZL7cvRoundf(float noundef %37)
  call void @_ZN2cv6Point_IiEC2Eii(ptr noundef nonnull align 4 dereferenceable(8) %10, i32 noundef %35, i32 noundef %38)
  call void @llvm.memcpy.p0.p0.i64(ptr align 4 %6, ptr align 4 %10, i64 8, i1 false), !tbaa.struct !314
  call void @llvm.lifetime.end.p0(i64 8, ptr %10) #3
  call void @llvm.lifetime.start.p0(i64 8, ptr %11) #3
  call void @llvm.lifetime.start.p0(i64 8, ptr %12) #3
  %39 = call i64 @_ZN2cvmiIiEENS_6Point_IT_EERKS3_S5_(ptr noundef nonnull align 4 dereferenceable(8) %5, ptr noundef nonnull align 4 dereferenceable(8) %6)
  store i64 %39, ptr %12, align 4
  %40 = call noundef double @_ZN2cvL4normIiEEdRKNS_6Point_IT_EE(ptr noundef nonnull align 4 dereferenceable(8) %12)
  call void @llvm.lifetime.end.p0(i64 8, ptr %12) #3
  store double %40, ptr %11, align 8, !tbaa !36
  %41 = load double, ptr %7, align 8, !tbaa !36
  %42 = load double, ptr %11, align 8, !tbaa !36
  %43 = fcmp ogt double %41, %42
  call void @llvm.lifetime.end.p0(i64 8, ptr %11) #3
  call void @llvm.lifetime.end.p0(i64 8, ptr %7) #3
  call void @llvm.lifetime.end.p0(i64 8, ptr %6) #3
  call void @llvm.lifetime.end.p0(i64 8, ptr %5) #3
  ret i1 %43
}