; Function Attrs: mustprogress nofree norecurse nosync nounwind willreturn memory(argmem: read) uwtable
define internal noundef zeroext i1 @_ZN2cv4textL9edge_compENS_3VecIfLi4EEES2_(ptr noundef readonly captures(none) %0, ptr noundef readonly captures(none) %1) #20 {
  %3 = load float, ptr %0, align 4, !tbaa !252
  %4 = insertelement <4 x float> poison, float %3, i64 0
  %5 = tail call noundef i32 @llvm.x86.sse.cvtss2si(<4 x float> %4)
  %6 = getelementptr inbounds nuw i8, ptr %0, i64 4
  %7 = load float, ptr %6, align 4, !tbaa !252
  %8 = insertelement <4 x float> poison, float %7, i64 0
  %9 = tail call noundef i32 @llvm.x86.sse.cvtss2si(<4 x float> %8)
  %10 = getelementptr inbounds nuw i8, ptr %0, i64 8
  %11 = load float, ptr %10, align 4, !tbaa !252
  %12 = insertelement <4 x float> poison, float %11, i64 0
  %13 = tail call noundef i32 @llvm.x86.sse.cvtss2si(<4 x float> %12)
  %14 = getelementptr inbounds nuw i8, ptr %0, i64 12
  %15 = load float, ptr %14, align 4, !tbaa !252
  %16 = insertelement <4 x float> poison, float %15, i64 0
  %17 = tail call noundef i32 @llvm.x86.sse.cvtss2si(<4 x float> %16)
  %18 = sub nsw i32 %5, %13
  %19 = sub nsw i32 %9, %17
  %20 = sitofp i32 %18 to double
  %21 = sitofp i32 %19 to double
  %22 = fmul double %21, %21
  %23 = tail call double @llvm.fmuladd.f64(double %20, double %20, double %22)
  %sqrt.i = tail call noundef double @llvm.sqrt.f64(double %23)
  %24 = load float, ptr %1, align 4, !tbaa !252
  %25 = insertelement <4 x float> poison, float %24, i64 0
  %26 = tail call noundef i32 @llvm.x86.sse.cvtss2si(<4 x float> %25)
  %27 = getelementptr inbounds nuw i8, ptr %1, i64 4
  %28 = load float, ptr %27, align 4, !tbaa !252
  %29 = insertelement <4 x float> poison, float %28, i64 0
  %30 = tail call noundef i32 @llvm.x86.sse.cvtss2si(<4 x float> %29)
  %31 = getelementptr inbounds nuw i8, ptr %1, i64 8
  %32 = load float, ptr %31, align 4, !tbaa !252
  %33 = insertelement <4 x float> poison, float %32, i64 0
  %34 = tail call noundef i32 @llvm.x86.sse.cvtss2si(<4 x float> %33)
  %35 = getelementptr inbounds nuw i8, ptr %1, i64 12
  %36 = load float, ptr %35, align 4, !tbaa !252
  %37 = insertelement <4 x float> poison, float %36, i64 0
  %38 = tail call noundef i32 @llvm.x86.sse.cvtss2si(<4 x float> %37)
  %39 = sub nsw i32 %26, %34
  %40 = sub nsw i32 %30, %38
  %41 = sitofp i32 %39 to double
  %42 = sitofp i32 %40 to double
  %43 = fmul double %42, %42
  %44 = tail call double @llvm.fmuladd.f64(double %41, double %41, double %43)
  %sqrt.i17 = tail call noundef double @llvm.sqrt.f64(double %44)
  %45 = fcmp ogt double %sqrt.i, %sqrt.i17
  ret i1 %45
}